; Function Attrs: mustprogress nounwind uwtable
define internal fastcc void @_ZN12_GLOBAL__N_112StmtProfiler24VisitObjCBoolLiteralExprEPKN5clang19ObjCBoolLiteralExprE(ptr noundef nonnull align 8 dereferenceable(18) %0, ptr noundef %1) unnamed_addr #0 align 2 {
  tail call fastcc void @_ZN12_GLOBAL__N_112StmtProfiler9VisitStmtEPKN5clang4StmtE(ptr noundef nonnull align 8 dereferenceable(18) %0, ptr noundef %1)
  %3 = getelementptr inbounds nuw i8, ptr %0, i64 8
  %4 = load ptr, ptr %3, align 8
  %5 = getelementptr inbounds nuw i8, ptr %1, i64 16
  %6 = load i8, ptr %5, align 8
  %7 = tail call noundef i64 @_ZNK4llvm15SmallVectorBaseIjE4sizeEv(ptr noundef nonnull align 8 dereferenceable(144) %4) #11
  %8 = add i64 %7, 1
  %9 = tail call noundef i64 @_ZNK4llvm15SmallVectorBaseIjE8capacityEv(ptr noundef nonnull align 8 dereferenceable(144) %4) #11
  %.not.i.i.i.i.i = icmp ugt i64 %8, %9
  br i1 %.not.i.i.i.i.i, label %10, label %_ZN4llvm16FoldingSetNodeID10AddBooleanEb.exit

10:                                               ; preds = %2
  %11 = getelementptr inbounds nuw i8, ptr %4, i64 16
  tail call void @_ZN4llvm15SmallVectorBaseIjE8grow_podEPvmm(ptr noundef nonnull align 8 dereferenceable(144) %4, ptr noundef nonnull %11, i64 noundef %8, i64 noundef 4) #11
  br label %_ZN4llvm16FoldingSetNodeID10AddBooleanEb.exit

_ZN4llvm16FoldingSetNodeID10AddBooleanEb.exit:    ; preds = %2, %10
  %12 = and i8 %6, 1
  %13 = zext nneg i8 %12 to i32
  %14 = load ptr, ptr %4, align 8
  %15 = tail call noundef i64 @_ZNK4llvm15SmallVectorBaseIjE4sizeEv(ptr noundef nonnull align 8 dereferenceable(144) %4) #11
  %16 = getelementptr inbounds i32, ptr %14, i64 %15
  store i32 %13, ptr %16, align 1
  %17 = tail call noundef i64 @_ZNK4llvm15SmallVectorBaseIjE4sizeEv(ptr noundef nonnull align 8 dereferenceable(144) %4) #11
  %18 = add i64 %17, 1
  tail call void @_ZN4llvm15SmallVectorBaseIjE8set_sizeEm(ptr noundef nonnull align 8 dereferenceable(144) %4, i64 noundef %18) #11
  ret void
}